; Function Attrs: mustprogress uwtable
define void @_ZN32pxrInternal_v0_24__pxrReserved__14Plug_TaskArena4WaitEv(ptr nocapture noundef nonnull readonly align 8 dereferenceable(8) %0) local_unnamed_addr #0 align 2 {
  %2 = load ptr, ptr %0, align 8
  %.not = icmp eq ptr %2, null
  br i1 %.not, label %4, label %3

3:                                                ; preds = %1
  tail call void @_ZN32pxrInternal_v0_24__pxrReserved__14WorkDispatcher4WaitEv(ptr noundef nonnull align 8 dereferenceable(345) %2)
  br label %4

4:                                                ; preds = %3, %1
  ret void
}